target datalayout = "e-m:e-p270:32:32-p271:32:32-p272:64:64-i64:64-i128:128-f80:128-n8:16:32:64-S128"
target triple = "x86_64-pc-linux-gnu"

%class.XStatCounter = type { %class.XStatIterableValue, %class.XStatSampler }
%class.XStatIterableValue = type { %class.XStatValue, ptr }
%class.XStatValue = type { ptr, ptr, i32, i32 }
%class.XStatSampler = type { %class.XStatIterableValue.0, ptr }
%class.XStatIterableValue.0 = type { %class.XStatValue, ptr }
%class.XPageCache = type { %class.XValue, %class.XList, %class.XList, i64 }
%class.XValue = type { i64 }
%class.XList = type { %class.XListNode, i64 }
%class.XListNode = type { ptr, ptr }
%class.XPage = type { i8, i8, i32, %class.XVirtualMemory, i64, %class.XLiveMap, i64, %class.XPhysicalMemory, %class.XListNode }
%class.XVirtualMemory = type { i64, i64 }
%class.XLiveMap = type { i32, i32, i64, i64, i64, %class.XBitMap, i64 }
%class.XBitMap = type { %class.CHeapBitMap.base, [7 x i8] }
%class.CHeapBitMap.base = type <{ %class.GrowableBitMap, i8 }>
%class.GrowableBitMap = type { %class.BitMap }
%class.BitMap = type { ptr, i64 }
%class.XPhysicalMemory = type { %class.GrowableArrayCHeap }
%class.GrowableArrayCHeap = type { %class.GrowableArrayWithAllocator }
%class.GrowableArrayWithAllocator = type { %class.GrowableArrayView }
%class.GrowableArrayView = type { %class.GrowableArrayBase, ptr }
%class.GrowableArrayBase = type { i32, i32 }
%class.anon = type { i8 }

@_ZL22XCounterPageCacheHitL1 = internal global %class.XStatCounter zeroinitializer, align 8

; Function Attrs: mustprogress nounwind uwtable
define linkonce_odr hidden noundef i64 @_ZZNK5XListI5XPageE13cast_to_outerEP9XListNodeIS0_EENKUlvE_clEv(ptr noundef nonnull align 1 dereferenceable(1) %0) #1 comdat align 2 {
  %2 = alloca ptr, align 8
  %3 = alloca [136 x i8], align 16
  %4 = alloca ptr, align 8
  %5 = alloca ptr, align 8
  store ptr %0, ptr %2, align 8
  %6 = getelementptr inbounds [136 x i8], ptr %3, i64 0, i64 0
  store ptr %6, ptr %4, align 8
  %7 = load ptr, ptr %4, align 8
  %8 = getelementptr inbounds %class.XPage, ptr %7, i32 0, i32 8
  store ptr %8, ptr %5, align 8
  %9 = load ptr, ptr %5, align 8
  %10 = getelementptr inbounds [136 x i8], ptr %3, i64 0, i64 0
  %11 = ptrtoint ptr %9 to i64
  %12 = ptrtoint ptr %10 to i64
  %13 = sub i64 %11, %12
  ret i64 %13
}

; Function Attrs: mustprogress nounwind uwtable
define linkonce_odr hidden noundef i64 @_ZNK5XListI5XPageE4sizeEv(ptr noundef nonnull align 8 dereferenceable(24) %0) #1 comdat align 2 {
  %2 = alloca ptr, align 8
  store ptr %0, ptr %2, align 8
  %3 = load ptr, ptr %2, align 8
  call void @_ZNK5XListI5XPageE11verify_headEv(ptr noundef nonnull align 8 dereferenceable(24) %3)
  %4 = getelementptr inbounds %class.XList, ptr %3, i32 0, i32 1
  %5 = load i64, ptr %4, align 8
  ret i64 %5
}

; Function Attrs: mustprogress nounwind uwtable
define linkonce_odr hidden void @_ZNK9XListNodeI5XPageE12verify_linksEv(ptr noundef nonnull align 8 dereferenceable(16) %0) #1 comdat align 2 {
  %2 = alloca ptr, align 8
  store ptr %0, ptr %2, align 8
  ret void
}

; Function Attrs: mustprogress nounwind uwtable
define linkonce_odr hidden void @_ZNK9XListNodeI5XPageE21verify_links_unlinkedEv(ptr noundef nonnull align 8 dereferenceable(16) %0) #1 comdat align 2 {
  %2 = alloca ptr, align 8
  store ptr %0, ptr %2, align 8
  ret void
}

; Function Attrs: mustprogress nounwind uwtable
define linkonce_odr hidden void @_ZNK9XListNodeI5XPageE19verify_links_linkedEv(ptr noundef nonnull align 8 dereferenceable(16) %0) #1 comdat align 2 {
  %2 = alloca ptr, align 8
  store ptr %0, ptr %2, align 8
  %3 = load ptr, ptr %2, align 8
  call void @_ZNK9XListNodeI5XPageE12verify_linksEv(ptr noundef nonnull align 8 dereferenceable(16) %3)
  ret void
}

; Function Attrs: mustprogress nounwind uwtable
define linkonce_odr hidden noundef ptr @_ZNK5XListI5XPageE13cast_to_innerEPS0_(ptr noundef nonnull align 8 dereferenceable(24) %0, ptr noundef %1) #1 comdat align 2 {
  %3 = alloca ptr, align 8
  %4 = alloca ptr, align 8
  store ptr %0, ptr %3, align 8
  store ptr %1, ptr %4, align 8
  %5 = load ptr, ptr %4, align 8
  %6 = getelementptr inbounds %class.XPage, ptr %5, i32 0, i32 8
  ret ptr %6
}

; Function Attrs: mustprogress nounwind uwtable
define linkonce_odr hidden void @_ZNK5XListI5XPageE11verify_headEv(ptr noundef nonnull align 8 dereferenceable(24) %0) #1 comdat align 2 {
  %2 = alloca ptr, align 8
  store ptr %0, ptr %2, align 8
  %3 = load ptr, ptr %2, align 8
  %4 = getelementptr inbounds %class.XList, ptr %3, i32 0, i32 0
  call void @_ZNK9XListNodeI5XPageE12verify_linksEv(ptr noundef nonnull align 8 dereferenceable(16) %4)
  ret void
}

; Function Attrs: mustprogress nounwind uwtable
define linkonce_odr hidden noundef ptr @_ZNK5XListI5XPageE13cast_to_outerEP9XListNodeIS0_E(ptr noundef nonnull align 8 dereferenceable(24) %0, ptr noundef %1) #1 comdat align 2 {
  %3 = alloca ptr, align 8
  %4 = alloca ptr, align 8
  %5 = alloca %class.anon, align 1
  store ptr %0, ptr %3, align 8
  store ptr %1, ptr %4, align 8
  %6 = load ptr, ptr %4, align 8
  %7 = ptrtoint ptr %6 to i64
  %8 = call noundef i64 @_ZZNK5XListI5XPageE13cast_to_outerEP9XListNodeIS0_EENKUlvE_clEv(ptr noundef nonnull align 1 dereferenceable(1) %5)
  %9 = sub i64 %7, %8
  %10 = inttoptr i64 %9 to ptr
  ret ptr %10
}

; Function Attrs: mustprogress nounwind uwtable
define linkonce_odr hidden noundef zeroext i1 @_ZNK5XListI5XPageE8is_emptyEv(ptr noundef nonnull align 8 dereferenceable(24) %0) #1 comdat align 2 {
  %2 = alloca ptr, align 8
  store ptr %0, ptr %2, align 8
  %3 = load ptr, ptr %2, align 8
  %4 = call noundef i64 @_ZNK5XListI5XPageE4sizeEv(ptr noundef nonnull align 8 dereferenceable(24) %3)
  %5 = icmp eq i64 %4, 0
  ret i1 %5
}

; Function Attrs: mustprogress nounwind uwtable
define linkonce_odr hidden void @_ZN5XListI5XPageE6removeEPS0_(ptr noundef nonnull align 8 dereferenceable(24) %0, ptr noundef %1) #1 comdat align 2 {
  %3 = alloca ptr, align 8
  %4 = alloca ptr, align 8
  %5 = alloca ptr, align 8
  %6 = alloca ptr, align 8
  %7 = alloca ptr, align 8
  store ptr %0, ptr %3, align 8
  store ptr %1, ptr %4, align 8
  %8 = load ptr, ptr %3, align 8
  call void @_ZNK5XListI5XPageE11verify_headEv(ptr noundef nonnull align 8 dereferenceable(24) %8)
  %9 = load ptr, ptr %4, align 8
  %10 = call noundef ptr @_ZNK5XListI5XPageE13cast_to_innerEPS0_(ptr noundef nonnull align 8 dereferenceable(24) %8, ptr noundef %9)
  store ptr %10, ptr %5, align 8
  %11 = load ptr, ptr %5, align 8
  call void @_ZNK9XListNodeI5XPageE19verify_links_linkedEv(ptr noundef nonnull align 8 dereferenceable(16) %11)
  %12 = load ptr, ptr %5, align 8
  %13 = getelementptr inbounds %class.XListNode, ptr %12, i32 0, i32 0
  %14 = load ptr, ptr %13, align 8
  store ptr %14, ptr %6, align 8
  %15 = load ptr, ptr %5, align 8
  %16 = getelementptr inbounds %class.XListNode, ptr %15, i32 0, i32 1
  %17 = load ptr, ptr %16, align 8
  store ptr %17, ptr %7, align 8
  %18 = load ptr, ptr %6, align 8
  call void @_ZNK9XListNodeI5XPageE19verify_links_linkedEv(ptr noundef nonnull align 8 dereferenceable(16) %18)
  %19 = load ptr, ptr %7, align 8
  call void @_ZNK9XListNodeI5XPageE19verify_links_linkedEv(ptr noundef nonnull align 8 dereferenceable(16) %19)
  %20 = load ptr, ptr %7, align 8
  %21 = getelementptr inbounds %class.XListNode, ptr %20, i32 0, i32 0
  %22 = load ptr, ptr %21, align 8
  %23 = load ptr, ptr %5, align 8
  %24 = getelementptr inbounds %class.XListNode, ptr %23, i32 0, i32 0
  store ptr %22, ptr %24, align 8
  %25 = load ptr, ptr %6, align 8
  %26 = getelementptr inbounds %class.XListNode, ptr %25, i32 0, i32 1
  %27 = load ptr, ptr %26, align 8
  %28 = load ptr, ptr %5, align 8
  %29 = getelementptr inbounds %class.XListNode, ptr %28, i32 0, i32 1
  store ptr %27, ptr %29, align 8
  %30 = load ptr, ptr %5, align 8
  call void @_ZNK9XListNodeI5XPageE21verify_links_unlinkedEv(ptr noundef nonnull align 8 dereferenceable(16) %30)
  %31 = load ptr, ptr %7, align 8
  %32 = load ptr, ptr %6, align 8
  %33 = getelementptr inbounds %class.XListNode, ptr %32, i32 0, i32 1
  store ptr %31, ptr %33, align 8
  %34 = load ptr, ptr %6, align 8
  %35 = load ptr, ptr %7, align 8
  %36 = getelementptr inbounds %class.XListNode, ptr %35, i32 0, i32 0
  store ptr %34, ptr %36, align 8
  %37 = load ptr, ptr %6, align 8
  call void @_ZNK9XListNodeI5XPageE12verify_linksEv(ptr noundef nonnull align 8 dereferenceable(16) %37)
  %38 = load ptr, ptr %7, align 8
  call void @_ZNK9XListNodeI5XPageE12verify_linksEv(ptr noundef nonnull align 8 dereferenceable(16) %38)
  %39 = getelementptr inbounds %class.XList, ptr %8, i32 0, i32 1
  %40 = load i64, ptr %39, align 8
  %41 = add i64 %40, -1
  store i64 %41, ptr %39, align 8
  ret void
}

; Function Attrs: mustprogress nounwind uwtable
define linkonce_odr hidden noundef ptr @_ZNK5XListI5XPageE5firstEv(ptr noundef nonnull align 8 dereferenceable(24) %0) #1 comdat align 2 {
  %2 = alloca ptr, align 8
  store ptr %0, ptr %2, align 8
  %3 = load ptr, ptr %2, align 8
  %4 = call noundef zeroext i1 @_ZNK5XListI5XPageE8is_emptyEv(ptr noundef nonnull align 8 dereferenceable(24) %3)
  br i1 %4, label %5, label %6

5:                                                ; preds = %1
  br label %11

6:                                                ; preds = %1
  %7 = getelementptr inbounds %class.XList, ptr %3, i32 0, i32 0
  %8 = getelementptr inbounds %class.XListNode, ptr %7, i32 0, i32 0
  %9 = load ptr, ptr %8, align 8
  %10 = call noundef ptr @_ZNK5XListI5XPageE13cast_to_outerEP9XListNodeIS0_E(ptr noundef nonnull align 8 dereferenceable(24) %3, ptr noundef %9)
  br label %11

11:                                               ; preds = %6, %5
  %12 = phi ptr [ null, %5 ], [ %10, %6 ]
  ret ptr %12
}

; Function Attrs: mustprogress nounwind uwtable
define linkonce_odr hidden noundef ptr @_ZN5XListI5XPageE12remove_firstEv(ptr noundef nonnull align 8 dereferenceable(24) %0) #1 comdat align 2 {
  %2 = alloca ptr, align 8
  %3 = alloca ptr, align 8
  store ptr %0, ptr %2, align 8
  %4 = load ptr, ptr %2, align 8
  %5 = call noundef ptr @_ZNK5XListI5XPageE5firstEv(ptr noundef nonnull align 8 dereferenceable(24) %4)
  store ptr %5, ptr %3, align 8
  %6 = load ptr, ptr %3, align 8
  %7 = icmp ne ptr %6, null
  br i1 %7, label %8, label %10

8:                                                ; preds = %1
  %9 = load ptr, ptr %3, align 8
  call void @_ZN5XListI5XPageE6removeEPS0_(ptr noundef nonnull align 8 dereferenceable(24) %4, ptr noundef %9)
  br label %10

10:                                               ; preds = %8, %1
  %11 = load ptr, ptr %3, align 8
  ret ptr %11
}

; Function Attrs: mustprogress nounwind uwtable
define hidden noundef ptr @_ZN10XPageCache17alloc_medium_pageEv(ptr noundef nonnull align 8 dereferenceable(64) %0) #1 align 2 {
  %2 = alloca ptr, align 8
  %3 = alloca ptr, align 8
  %4 = alloca ptr, align 8
  store ptr %0, ptr %3, align 8
  %5 = load ptr, ptr %3, align 8
  %6 = getelementptr inbounds %class.XPageCache, ptr %5, i32 0, i32 1
  %7 = call noundef ptr @_ZN5XListI5XPageE12remove_firstEv(ptr noundef nonnull align 8 dereferenceable(24) %6)
  store ptr %7, ptr %4, align 8
  %8 = load ptr, ptr %4, align 8
  %9 = icmp ne ptr %8, null
  br i1 %9, label %10, label %12

10:                                               ; preds = %1
  call void @_Z8XStatIncRK12XStatCounterm(ptr noundef nonnull align 8 dereferenceable(72) @_ZL22XCounterPageCacheHitL1, i64 noundef 1)
  %11 = load ptr, ptr %4, align 8
  store ptr %11, ptr %2, align 8
  br label %13

12:                                               ; preds = %1
  store ptr null, ptr %2, align 8
  br label %13

13:                                               ; preds = %12, %10
  %14 = load ptr, ptr %2, align 8
  ret ptr %14
}