; Function Attrs: mustprogress nounwind uwtable
define hidden noundef ptr @_ZN10XPageCache17alloc_medium_pageEv(ptr nocapture noundef nonnull align 8 dereferenceable(64) %0) local_unnamed_addr #2 align 2 {
  %2 = getelementptr inbounds i8, ptr %0, i64 8
  %3 = getelementptr inbounds i8, ptr %0, i64 24
  %4 = load i64, ptr %3, align 8
  %5 = icmp eq i64 %4, 0
  %6 = load ptr, ptr %2, align 8
  %7 = ptrtoint ptr %6 to i64
  %8 = add i64 %7, -120
  %.not.i5 = icmp eq i64 %8, 0
  %.not.i = select i1 %5, i1 true, i1 %.not.i5
  br i1 %.not.i, label %_ZN5XListI5XPageE12remove_firstEv.exit.thread, label %9

9:                                                ; preds = %1
  %10 = inttoptr i64 %8 to ptr
  %11 = getelementptr inbounds i8, ptr %10, i64 120
  %12 = load ptr, ptr %11, align 8
  %13 = getelementptr inbounds i8, ptr %10, i64 128
  %14 = load ptr, ptr %13, align 8
  %15 = load ptr, ptr %14, align 8
  store ptr %15, ptr %11, align 8
  %16 = getelementptr inbounds i8, ptr %12, i64 8
  %17 = load ptr, ptr %16, align 8
  store ptr %17, ptr %13, align 8
  store ptr %14, ptr %16, align 8
  store ptr %12, ptr %14, align 8
  %18 = load i64, ptr %3, align 8
  %19 = add i64 %18, -1
  store i64 %19, ptr %3, align 8
  tail call void @_Z8XStatIncRK12XStatCounterm(ptr noundef nonnull align 8 dereferenceable(72) @_ZL22XCounterPageCacheHitL1, i64 noundef 1) #9
  br label %_ZN5XListI5XPageE12remove_firstEv.exit.thread

_ZN5XListI5XPageE12remove_firstEv.exit.thread:    ; preds = %1, %9
  %.0 = phi ptr [ %10, %9 ], [ null, %1 ]
  ret ptr %.0
}